target datalayout = "e-m:e-p270:32:32-p271:32:32-p272:64:64-i64:64-i128:128-f80:128-n8:16:32:64-S128"
target triple = "x86_64-pc-linux-gnu"

%struct.anon = type { i64, double, double, ptr }

; Function Attrs: nounwind uwtable
define dso_local i32 @PsetupHeat(double noundef %0, ptr noundef %1, ptr noundef %2, ptr noundef %3, double noundef %4, ptr noundef %5) #0 {
  %7 = alloca double, align 8
  %8 = alloca ptr, align 8
  %9 = alloca ptr, align 8
  %10 = alloca ptr, align 8
  %11 = alloca double, align 8
  %12 = alloca ptr, align 8
  %13 = alloca i64, align 8
  %14 = alloca i64, align 8
  %15 = alloca i64, align 8
  %16 = alloca i64, align 8
  %17 = alloca i64, align 8
  %18 = alloca ptr, align 8
  %19 = alloca double, align 8
  %20 = alloca ptr, align 8
  store double %0, ptr %7, align 8, !tbaa !27
  store ptr %1, ptr %8, align 8, !tbaa !12
  store ptr %2, ptr %9, align 8, !tbaa !12
  store ptr %3, ptr %10, align 8, !tbaa !12
  store double %4, ptr %11, align 8, !tbaa !27
  store ptr %5, ptr %12, align 8, !tbaa !11
  call void @llvm.lifetime.start.p0(i64 8, ptr %13) #7
  call void @llvm.lifetime.start.p0(i64 8, ptr %14) #7
  call void @llvm.lifetime.start.p0(i64 8, ptr %15) #7
  call void @llvm.lifetime.start.p0(i64 8, ptr %16) #7
  call void @llvm.lifetime.start.p0(i64 8, ptr %17) #7
  call void @llvm.lifetime.start.p0(i64 8, ptr %18) #7
  call void @llvm.lifetime.start.p0(i64 8, ptr %19) #7
  call void @llvm.lifetime.start.p0(i64 8, ptr %20) #7
  %21 = load ptr, ptr %12, align 8, !tbaa !11
  store ptr %21, ptr %20, align 8, !tbaa !11
  %22 = load ptr, ptr %20, align 8, !tbaa !11
  %23 = getelementptr inbounds nuw %struct.anon, ptr %22, i32 0, i32 3
  %24 = load ptr, ptr %23, align 8, !tbaa !20
  %25 = call ptr @N_VGetArrayPointer(ptr noundef %24)
  store ptr %25, ptr %18, align 8, !tbaa !33
  %26 = load ptr, ptr %20, align 8, !tbaa !11
  %27 = getelementptr inbounds nuw %struct.anon, ptr %26, i32 0, i32 0
  %28 = load i64, ptr %27, align 8, !tbaa !24
  store i64 %28, ptr %17, align 8, !tbaa !28
  %29 = load ptr, ptr %20, align 8, !tbaa !11
  %30 = getelementptr inbounds nuw %struct.anon, ptr %29, i32 0, i32 3
  %31 = load ptr, ptr %30, align 8, !tbaa !20
  call void @N_VConst(double noundef 1.000000e+00, ptr noundef %31)
  %32 = load double, ptr %11, align 8, !tbaa !27
  %33 = load ptr, ptr %20, align 8, !tbaa !11
  %34 = getelementptr inbounds nuw %struct.anon, ptr %33, i32 0, i32 2
  %35 = load double, ptr %34, align 8, !tbaa !26
  %36 = call double @llvm.fmuladd.f64(double 4.000000e+00, double %35, double %32)
  %37 = fdiv double 1.000000e+00, %36
  store double %37, ptr %19, align 8, !tbaa !27
  store i64 1, ptr %14, align 8, !tbaa !28
  br label %38

38:                                               ; preds = %64, %6
  %39 = load i64, ptr %14, align 8, !tbaa !28
  %40 = load i64, ptr %17, align 8, !tbaa !28
  %41 = sub nsw i64 %40, 1
  %42 = icmp slt i64 %39, %41
  br i1 %42, label %43, label %67

43:                                               ; preds = %38
  %44 = load i64, ptr %17, align 8, !tbaa !28
  %45 = load i64, ptr %14, align 8, !tbaa !28
  %46 = mul nsw i64 %44, %45
  store i64 %46, ptr %15, align 8, !tbaa !28
  store i64 1, ptr %13, align 8, !tbaa !28
  br label %47

47:                                               ; preds = %60, %43
  %48 = load i64, ptr %13, align 8, !tbaa !28
  %49 = load i64, ptr %17, align 8, !tbaa !28
  %50 = sub nsw i64 %49, 1
  %51 = icmp slt i64 %48, %50
  br i1 %51, label %52, label %63

52:                                               ; preds = %47
  %53 = load i64, ptr %15, align 8, !tbaa !28
  %54 = load i64, ptr %13, align 8, !tbaa !28
  %55 = add nsw i64 %53, %54
  store i64 %55, ptr %16, align 8, !tbaa !28
  %56 = load double, ptr %19, align 8, !tbaa !27
  %57 = load ptr, ptr %18, align 8, !tbaa !33
  %58 = load i64, ptr %16, align 8, !tbaa !28
  %59 = getelementptr inbounds double, ptr %57, i64 %58
  store double %56, ptr %59, align 8, !tbaa !27
  br label %60

60:                                               ; preds = %52
  %61 = load i64, ptr %13, align 8, !tbaa !28
  %62 = add nsw i64 %61, 1
  store i64 %62, ptr %13, align 8, !tbaa !28
  br label %47

63:                                               ; preds = %47
  br label %64

64:                                               ; preds = %63
  %65 = load i64, ptr %14, align 8, !tbaa !28
  %66 = add nsw i64 %65, 1
  store i64 %66, ptr %14, align 8, !tbaa !28
  br label %38

67:                                               ; preds = %38
  call void @llvm.lifetime.end.p0(i64 8, ptr %20) #7
  call void @llvm.lifetime.end.p0(i64 8, ptr %19) #7
  call void @llvm.lifetime.end.p0(i64 8, ptr %18) #7
  call void @llvm.lifetime.end.p0(i64 8, ptr %17) #7
  call void @llvm.lifetime.end.p0(i64 8, ptr %16) #7
  call void @llvm.lifetime.end.p0(i64 8, ptr %15) #7
  call void @llvm.lifetime.end.p0(i64 8, ptr %14) #7
  call void @llvm.lifetime.end.p0(i64 8, ptr %13) #7
  ret i32 0
}